; Function Attrs: nounwind uwtable
define void @Abc_FlowRetime_ConstrainExact_forw_rec(ptr noundef %0, ptr noundef captures(none) %1, i32 noundef %2) local_unnamed_addr #0 {
  %4 = getelementptr i8, ptr %0, i64 20
  %.val25 = load i32, ptr %4, align 4
  %5 = and i32 %.val25, 15
  %.not = icmp eq i32 %5, 8
  %.not19 = icmp eq i32 %2, 0
  br i1 %.not, label %6, label %7

6:                                                ; preds = %3
  br i1 %.not19, label %.thread, label %64

7:                                                ; preds = %3
  br i1 %.not19, label %8, label %.thread

8:                                                ; preds = %7
  %9 = and i32 %.val25, 16
  %.not21 = icmp eq i32 %9, 0
  br i1 %.not21, label %11, label %64

.thread:                                          ; preds = %6, %7
  %.01829 = phi i32 [ %2, %7 ], [ 1, %6 ]
  %10 = and i32 %.val25, 32
  %.not22 = icmp eq i32 %10, 0
  br i1 %.not22, label %11, label %64

11:                                               ; preds = %.thread, %8
  %.sink = phi i32 [ 16, %8 ], [ 32, %.thread ]
  %.01828 = phi i32 [ 0, %8 ], [ %.01829, %.thread ]
  %12 = or disjoint i32 %.val25, %.sink
  store i32 %12, ptr %4, align 4
  %13 = getelementptr i8, ptr %0, i64 28
  %.val30 = load i32, ptr %13, align 4, !tbaa !3
  %14 = icmp sgt i32 %.val30, 0
  br i1 %14, label %.lr.ph, label %.critedge

.lr.ph:                                           ; preds = %11
  %15 = getelementptr i8, ptr %0, i64 32
  br label %16

16:                                               ; preds = %.lr.ph, %16
  %indvars.iv = phi i64 [ 0, %.lr.ph ], [ %indvars.iv.next, %16 ]
  %.val23 = load ptr, ptr %0, align 8, !tbaa !13
  %.val24 = load ptr, ptr %15, align 8, !tbaa !14
  %17 = getelementptr i8, ptr %.val23, i64 32
  %.val23.val = load ptr, ptr %17, align 8, !tbaa !15
  %18 = getelementptr i8, ptr %.val23.val, i64 8
  %.val23.val.val = load ptr, ptr %18, align 8, !tbaa !29
  %19 = getelementptr inbounds nuw i32, ptr %.val24, i64 %indvars.iv
  %20 = load i32, ptr %19, align 4, !tbaa !33
  %21 = sext i32 %20 to i64
  %22 = getelementptr inbounds ptr, ptr %.val23.val.val, i64 %21
  %23 = load ptr, ptr %22, align 8, !tbaa !34
  tail call void @Abc_FlowRetime_ConstrainExact_forw_rec(ptr noundef %23, ptr noundef %1, i32 noundef %.01828)
  %indvars.iv.next = add nuw nsw i64 %indvars.iv, 1
  %.val = load i32, ptr %13, align 4, !tbaa !3
  %24 = sext i32 %.val to i64
  %25 = icmp slt i64 %indvars.iv.next, %24
  br i1 %25, label %16, label %.critedge.loopexit, !llvm.loop !100

.critedge.loopexit:                               ; preds = %16
  %.pre = load i32, ptr %4, align 4
  br label %.critedge

.critedge:                                        ; preds = %.critedge.loopexit, %11
  %26 = phi i32 [ %.pre, %.critedge.loopexit ], [ %12, %11 ]
  %27 = and i32 %26, 4095
  store i32 %27, ptr %4, align 4
  %28 = ptrtoint ptr %0 to i64
  %29 = icmp ne i32 %.01828, 0
  %30 = zext i1 %29 to i64
  %31 = xor i64 %30, %28
  %32 = inttoptr i64 %31 to ptr
  %33 = getelementptr inbounds nuw i8, ptr %1, i64 4
  %34 = load i32, ptr %33, align 4, !tbaa !42
  %35 = load i32, ptr %1, align 8, !tbaa !43
  %36 = icmp eq i32 %34, %35
  br i1 %36, label %37, label %.Vec_PtrGrow.exit11_crit_edge.i

.Vec_PtrGrow.exit11_crit_edge.i:                  ; preds = %.critedge
  %.phi.trans.insert.i = getelementptr inbounds nuw i8, ptr %1, i64 8
  %.pre.i = load ptr, ptr %.phi.trans.insert.i, align 8, !tbaa !29
  br label %Vec_PtrPush.exit

37:                                               ; preds = %.critedge
  %38 = icmp slt i32 %34, 16
  br i1 %38, label %39, label %47

39:                                               ; preds = %37
  %40 = getelementptr inbounds nuw i8, ptr %1, i64 8
  %41 = load ptr, ptr %40, align 8, !tbaa !29
  %.not9.i.i = icmp eq ptr %41, null
  br i1 %.not9.i.i, label %44, label %42

42:                                               ; preds = %39
  %43 = tail call dereferenceable_or_null(128) ptr @realloc(ptr noundef nonnull %41, i64 noundef 128) #13
  br label %Vec_PtrGrow.exit.i

44:                                               ; preds = %39
  %45 = tail call noalias dereferenceable_or_null(128) ptr @malloc(i64 noundef 128) #12
  br label %Vec_PtrGrow.exit.i

Vec_PtrGrow.exit.i:                               ; preds = %44, %42
  %46 = phi ptr [ %43, %42 ], [ %45, %44 ]
  store ptr %46, ptr %40, align 8, !tbaa !29
  store i32 16, ptr %1, align 8, !tbaa !43
  br label %Vec_PtrPush.exit

47:                                               ; preds = %37
  %48 = shl nuw nsw i32 %34, 1
  %49 = getelementptr inbounds nuw i8, ptr %1, i64 8
  %50 = load ptr, ptr %49, align 8, !tbaa !29
  %.not9.i10.i = icmp eq ptr %50, null
  %51 = zext nneg i32 %48 to i64
  %52 = shl nuw nsw i64 %51, 3
  br i1 %.not9.i10.i, label %55, label %53

53:                                               ; preds = %47
  %54 = tail call ptr @realloc(ptr noundef nonnull %50, i64 noundef %52) #13
  br label %57

55:                                               ; preds = %47
  %56 = tail call noalias ptr @malloc(i64 noundef %52) #12
  br label %57

57:                                               ; preds = %55, %53
  %58 = phi ptr [ %54, %53 ], [ %56, %55 ]
  store ptr %58, ptr %49, align 8, !tbaa !29
  store i32 %48, ptr %1, align 8, !tbaa !43
  br label %Vec_PtrPush.exit

Vec_PtrPush.exit:                                 ; preds = %.Vec_PtrGrow.exit11_crit_edge.i, %Vec_PtrGrow.exit.i, %57
  %59 = phi ptr [ %.pre.i, %.Vec_PtrGrow.exit11_crit_edge.i ], [ %58, %57 ], [ %46, %Vec_PtrGrow.exit.i ]
  %60 = load i32, ptr %33, align 4, !tbaa !42
  %61 = add nsw i32 %60, 1
  store i32 %61, ptr %33, align 4, !tbaa !42
  %62 = sext i32 %60 to i64
  %63 = getelementptr inbounds ptr, ptr %59, i64 %62
  store ptr %32, ptr %63, align 8, !tbaa !34
  br label %64

64:                                               ; preds = %.thread, %8, %6, %Vec_PtrPush.exit
  ret void
}